(dp0
S'desc'
p1
V\u54c8\u54c8
p2
sS'sname'
p3
V\u6c38\u6052\u65f6\u5149
p4
sS'name'
p5
V\u6c38\u6052\u65f6\u5149\u79d1\u6280\u6709\u9650\u516c\u53f8
p6
sS'welcome'
p7
V\u6c38\u6052\u65f6\u5149\u6b22\u8fce\u60a8
p8
sS'address'
p9
V\u5317\u4eac
p10
s.